target datalayout = "e-m:e-p270:32:32-p271:32:32-p272:64:64-i64:64-i128:128-f80:128-n8:16:32:64-S128"
target triple = "x86_64-pc-linux-gnu"

%struct.JNINativeInterface_ = type { ptr, ptr, ptr, ptr, ptr, ptr, ptr, ptr, ptr, ptr, ptr, ptr, ptr, ptr, ptr, ptr, ptr, ptr, ptr, ptr, ptr, ptr, ptr, ptr, ptr, ptr, ptr, ptr, ptr, ptr, ptr, ptr, ptr, ptr, ptr, ptr, ptr, ptr, ptr, ptr, ptr, ptr, ptr, ptr, ptr, ptr, ptr, ptr, ptr, ptr, ptr, ptr, ptr, ptr, ptr, ptr, ptr, ptr, ptr, ptr, ptr, ptr, ptr, ptr, ptr, ptr, ptr, ptr, ptr, ptr, ptr, ptr, ptr, ptr, ptr, ptr, ptr, ptr, ptr, ptr, ptr, ptr, ptr, ptr, ptr, ptr, ptr, ptr, ptr, ptr, ptr, ptr, ptr, ptr, ptr, ptr, ptr, ptr, ptr, ptr, ptr, ptr, ptr, ptr, ptr, ptr, ptr, ptr, ptr, ptr, ptr, ptr, ptr, ptr, ptr, ptr, ptr, ptr, ptr, ptr, ptr, ptr, ptr, ptr, ptr, ptr, ptr, ptr, ptr, ptr, ptr, ptr, ptr, ptr, ptr, ptr, ptr, ptr, ptr, ptr, ptr, ptr, ptr, ptr, ptr, ptr, ptr, ptr, ptr, ptr, ptr, ptr, ptr, ptr, ptr, ptr, ptr, ptr, ptr, ptr, ptr, ptr, ptr, ptr, ptr, ptr, ptr, ptr, ptr, ptr, ptr, ptr, ptr, ptr, ptr, ptr, ptr, ptr, ptr, ptr, ptr, ptr, ptr, ptr, ptr, ptr, ptr, ptr, ptr, ptr, ptr, ptr, ptr, ptr, ptr, ptr, ptr, ptr, ptr, ptr, ptr, ptr, ptr, ptr, ptr, ptr, ptr, ptr, ptr, ptr, ptr, ptr, ptr, ptr, ptr, ptr, ptr, ptr, ptr, ptr, ptr, ptr, ptr, ptr, ptr, ptr, ptr, ptr, ptr, ptr, ptr, ptr, ptr, ptr, ptr }
%struct.GSS_FUNCTION_TABLE = type { ptr, ptr, ptr, ptr, ptr, ptr, ptr, ptr, ptr, ptr, ptr, ptr, ptr, ptr, ptr, ptr, ptr, ptr, ptr, ptr, ptr, ptr, ptr, ptr, ptr, ptr, ptr, ptr, ptr }
%struct.gss_buffer_desc_struct = type { i64, ptr }

@JGSS_DEBUG = external global i32, align 4
@stderr = external global ptr, align 8
@ftab = external global ptr, align 8
@.str.69 = private unnamed_addr constant [41 x i8] c"[GSSLibStub:%d] [GSSLibStub_getMic] %lu\0A\00", align 1
@.str.70 = private unnamed_addr constant [20 x i8] c"[GSSLibStub_getMic]\00", align 1

; Function Attrs: nounwind uwtable
define ptr @Java_sun_security_jgss_wrapper_GSSLibStub_getMic(ptr noundef %0, ptr noundef %1, i64 noundef %2, i32 noundef %3, ptr noundef %4) #0 {
  %6 = alloca ptr, align 8
  %7 = alloca ptr, align 8
  %8 = alloca ptr, align 8
  %9 = alloca i64, align 8
  %10 = alloca i32, align 4
  %11 = alloca ptr, align 8
  %12 = alloca i32, align 4
  %13 = alloca i32, align 4
  %14 = alloca ptr, align 8
  %15 = alloca i32, align 4
  %16 = alloca %struct.gss_buffer_desc_struct, align 8
  %17 = alloca %struct.gss_buffer_desc_struct, align 8
  %18 = alloca ptr, align 8
  store ptr %0, ptr %7, align 8
  store ptr %1, ptr %8, align 8
  store i64 %2, ptr %9, align 8
  store i32 %3, ptr %10, align 4
  store ptr %4, ptr %11, align 8
  %19 = load i64, ptr %9, align 8
  %20 = inttoptr i64 %19 to ptr
  store ptr %20, ptr %14, align 8
  %21 = load i32, ptr @JGSS_DEBUG, align 4
  %22 = icmp ne i32 %21, 0
  br i1 %22, label %23, label %30

23:                                               ; preds = %5
  %24 = load ptr, ptr @stderr, align 8
  %25 = load ptr, ptr %14, align 8
  %26 = ptrtoint ptr %25 to i64
  %27 = call i32 (ptr, ptr, ...) @fprintf(ptr noundef %24, ptr noundef @.str.69, i32 noundef 1468, i64 noundef %26) #5
  %28 = load ptr, ptr @stderr, align 8
  %29 = call i32 @fflush(ptr noundef %28)
  br label %30

30:                                               ; preds = %23, %5
  %31 = load ptr, ptr %14, align 8
  %32 = icmp eq ptr %31, null
  br i1 %32, label %33, label %36

33:                                               ; preds = %30
  %34 = load ptr, ptr %7, align 8
  %35 = load ptr, ptr %8, align 8
  call void @checkStatus(ptr noundef %34, ptr noundef %35, i32 noundef 786432, i32 noundef 0, ptr noundef @.str.70)
  store ptr null, ptr %6, align 8
  br label %80

36:                                               ; preds = %30
  %37 = load i32, ptr %10, align 4
  store i32 %37, ptr %15, align 4
  %38 = load ptr, ptr %7, align 8
  %39 = load ptr, ptr %11, align 8
  call void @initGSSBuffer(ptr noundef %38, ptr noundef %39, ptr noundef %16)
  %40 = load ptr, ptr %7, align 8
  %41 = load ptr, ptr %40, align 8
  %42 = getelementptr inbounds %struct.JNINativeInterface_, ptr %41, i32 0, i32 228
  %43 = load ptr, ptr %42, align 8
  %44 = load ptr, ptr %7, align 8
  %45 = call zeroext i8 %43(ptr noundef %44)
  %46 = icmp ne i8 %45, 0
  br i1 %46, label %47, label %48

47:                                               ; preds = %36
  store ptr null, ptr %6, align 8
  br label %80

48:                                               ; preds = %36
  %49 = load ptr, ptr @ftab, align 8
  %50 = getelementptr inbounds %struct.GSS_FUNCTION_TABLE, ptr %49, i32 0, i32 18
  %51 = load ptr, ptr %50, align 8
  %52 = load ptr, ptr %14, align 8
  %53 = load i32, ptr %15, align 4
  %54 = call i32 %51(ptr noundef %12, ptr noundef %52, i32 noundef %53, ptr noundef %16, ptr noundef %17)
  store i32 %54, ptr %13, align 4
  call void @resetGSSBuffer(ptr noundef %16)
  %55 = load ptr, ptr %7, align 8
  %56 = call ptr @getJavaBuffer(ptr noundef %55, ptr noundef %17)
  store ptr %56, ptr %18, align 8
  %57 = load ptr, ptr %7, align 8
  %58 = load ptr, ptr %57, align 8
  %59 = getelementptr inbounds %struct.JNINativeInterface_, ptr %58, i32 0, i32 228
  %60 = load ptr, ptr %59, align 8
  %61 = load ptr, ptr %7, align 8
  %62 = call zeroext i8 %60(ptr noundef %61)
  %63 = icmp ne i8 %62, 0
  br i1 %63, label %64, label %65

64:                                               ; preds = %48
  store ptr null, ptr %6, align 8
  br label %80

65:                                               ; preds = %48
  %66 = load ptr, ptr %7, align 8
  %67 = load ptr, ptr %8, align 8
  %68 = load i32, ptr %13, align 4
  %69 = load i32, ptr %12, align 4
  call void @checkStatus(ptr noundef %66, ptr noundef %67, i32 noundef %68, i32 noundef %69, ptr noundef @.str.70)
  %70 = load ptr, ptr %7, align 8
  %71 = load ptr, ptr %70, align 8
  %72 = getelementptr inbounds %struct.JNINativeInterface_, ptr %71, i32 0, i32 228
  %73 = load ptr, ptr %72, align 8
  %74 = load ptr, ptr %7, align 8
  %75 = call zeroext i8 %73(ptr noundef %74)
  %76 = icmp ne i8 %75, 0
  br i1 %76, label %77, label %78

77:                                               ; preds = %65
  store ptr null, ptr %6, align 8
  br label %80

78:                                               ; preds = %65
  %79 = load ptr, ptr %18, align 8
  store ptr %79, ptr %6, align 8
  br label %80

80:                                               ; preds = %78, %77, %64, %47, %33
  %81 = load ptr, ptr %6, align 8
  ret ptr %81
}