; Function Attrs: nounwind uwtable
define ptr @Java_sun_security_jgss_wrapper_GSSLibStub_getMic(ptr noundef %0, ptr noundef %1, i64 noundef %2, i32 noundef %3, ptr noundef %4) local_unnamed_addr #0 {
  %6 = alloca i32, align 4
  %7 = alloca %struct.gss_buffer_desc_struct, align 8
  %8 = alloca %struct.gss_buffer_desc_struct, align 8
  %9 = inttoptr i64 %2 to ptr
  %10 = load i32, ptr @JGSS_DEBUG, align 4
  %.not = icmp eq i32 %10, 0
  br i1 %.not, label %16, label %11

11:                                               ; preds = %5
  %12 = load ptr, ptr @stderr, align 8
  %13 = tail call i32 (ptr, ptr, ...) @fprintf(ptr noundef %12, ptr noundef nonnull @.str.69, i32 noundef 1468, i64 noundef %2) #8
  %14 = load ptr, ptr @stderr, align 8
  %15 = tail call i32 @fflush(ptr noundef %14)
  br label %16

16:                                               ; preds = %11, %5
  %17 = icmp eq i64 %2, 0
  br i1 %17, label %18, label %19

18:                                               ; preds = %16
  tail call void @checkStatus(ptr noundef %0, ptr noundef %1, i32 noundef 786432, i32 noundef 0, ptr noundef nonnull @.str.70) #9
  br label %40

19:                                               ; preds = %16
  call void @initGSSBuffer(ptr noundef %0, ptr noundef %4, ptr noundef nonnull %7) #9
  %20 = load ptr, ptr %0, align 8
  %21 = getelementptr inbounds i8, ptr %20, i64 1824
  %22 = load ptr, ptr %21, align 8
  %23 = call zeroext i8 %22(ptr noundef nonnull %0) #9
  %.not22 = icmp eq i8 %23, 0
  br i1 %.not22, label %24, label %40

24:                                               ; preds = %19
  %25 = load ptr, ptr @ftab, align 8
  %26 = getelementptr inbounds i8, ptr %25, i64 144
  %27 = load ptr, ptr %26, align 8
  %28 = call i32 %27(ptr noundef nonnull %6, ptr noundef nonnull %9, i32 noundef %3, ptr noundef nonnull %7, ptr noundef nonnull %8) #9
  call void @resetGSSBuffer(ptr noundef nonnull %7) #9
  %29 = call ptr @getJavaBuffer(ptr noundef nonnull %0, ptr noundef nonnull %8) #9
  %30 = load ptr, ptr %0, align 8
  %31 = getelementptr inbounds i8, ptr %30, i64 1824
  %32 = load ptr, ptr %31, align 8
  %33 = call zeroext i8 %32(ptr noundef nonnull %0) #9
  %.not23 = icmp eq i8 %33, 0
  br i1 %.not23, label %34, label %40

34:                                               ; preds = %24
  %35 = load i32, ptr %6, align 4
  call void @checkStatus(ptr noundef nonnull %0, ptr noundef %1, i32 noundef %28, i32 noundef %35, ptr noundef nonnull @.str.70) #9
  %36 = load ptr, ptr %0, align 8
  %37 = getelementptr inbounds i8, ptr %36, i64 1824
  %38 = load ptr, ptr %37, align 8
  %39 = call zeroext i8 %38(ptr noundef nonnull %0) #9
  %.not24 = icmp eq i8 %39, 0
  %. = select i1 %.not24, ptr %29, ptr null
  br label %40

40:                                               ; preds = %34, %24, %19, %18
  %.0 = phi ptr [ null, %18 ], [ null, %19 ], [ null, %24 ], [ %., %34 ]
  ret ptr %.0
}